target datalayout = "e-m:e-p270:32:32-p271:32:32-p272:64:64-i64:64-i128:128-f80:128-n8:16:32:64-S128"
target triple = "x86_64-pc-linux-gnu"

%struct.x509_store_ctx_st = type { ptr, i32, ptr, ptr, ptr, ptr, ptr, ptr, ptr, ptr, ptr, ptr, ptr, ptr, ptr, ptr, ptr, ptr, ptr, i32, i32, ptr, ptr, i32, i32, i32, ptr, ptr, ptr, i32, i32, ptr, %struct.crypto_ex_data_st }
%struct.crypto_ex_data_st = type { ptr }
%struct.x509_st = type { ptr, ptr, ptr, i32, i32, ptr, %struct.crypto_ex_data_st, i64, i64, i64, i64, i64, i64, ptr, ptr, ptr, ptr, ptr, ptr, [20 x i8], ptr }

; Function Attrs: nounwind uwtable
define internal i32 @check_name_constraints(ptr noundef %0) #0 {
  %2 = alloca i32, align 4
  %3 = alloca ptr, align 8
  %4 = alloca ptr, align 8
  %5 = alloca i32, align 4
  %6 = alloca i32, align 4
  %7 = alloca i32, align 4
  %8 = alloca ptr, align 8
  %9 = alloca i32, align 4
  store ptr %0, ptr %3, align 8, !tbaa !6
  call void @llvm.lifetime.start.p0(i64 8, ptr %4) #8
  call void @llvm.lifetime.start.p0(i64 4, ptr %5) #8
  call void @llvm.lifetime.start.p0(i64 4, ptr %6) #8
  call void @llvm.lifetime.start.p0(i64 4, ptr %7) #8
  %10 = load ptr, ptr %3, align 8, !tbaa !6
  %11 = getelementptr inbounds nuw %struct.x509_store_ctx_st, ptr %10, i32 0, i32 21
  %12 = load ptr, ptr %11, align 8, !tbaa !28
  %13 = call i64 @sk_num(ptr noundef %12)
  %14 = sub i64 %13, 1
  %15 = trunc i64 %14 to i32
  store i32 %15, ptr %5, align 4, !tbaa !13
  br label %16

16:                                               ; preds = %90, %1
  %17 = load i32, ptr %5, align 4, !tbaa !13
  %18 = icmp sge i32 %17, 0
  br i1 %18, label %19, label %93

19:                                               ; preds = %16
  %20 = load ptr, ptr %3, align 8, !tbaa !6
  %21 = getelementptr inbounds nuw %struct.x509_store_ctx_st, ptr %20, i32 0, i32 21
  %22 = load ptr, ptr %21, align 8, !tbaa !28
  %23 = load i32, ptr %5, align 4, !tbaa !13
  %24 = sext i32 %23 to i64
  %25 = call ptr @sk_value(ptr noundef %22, i64 noundef %24)
  store ptr %25, ptr %4, align 8, !tbaa !11
  %26 = load i32, ptr %5, align 4, !tbaa !13
  %27 = icmp ne i32 %26, 0
  br i1 %27, label %28, label %35

28:                                               ; preds = %19
  %29 = load ptr, ptr %4, align 8, !tbaa !11
  %30 = getelementptr inbounds nuw %struct.x509_st, ptr %29, i32 0, i32 9
  %31 = load i64, ptr %30, align 8, !tbaa !52
  %32 = and i64 %31, 32
  %33 = icmp ne i64 %32, 0
  br i1 %33, label %34, label %35

34:                                               ; preds = %28
  br label %90

35:                                               ; preds = %28, %19
  %36 = load ptr, ptr %3, align 8, !tbaa !6
  %37 = getelementptr inbounds nuw %struct.x509_store_ctx_st, ptr %36, i32 0, i32 21
  %38 = load ptr, ptr %37, align 8, !tbaa !28
  %39 = call i64 @sk_num(ptr noundef %38)
  %40 = sub i64 %39, 1
  %41 = trunc i64 %40 to i32
  store i32 %41, ptr %6, align 4, !tbaa !13
  br label %42

42:                                               ; preds = %86, %35
  %43 = load i32, ptr %6, align 4, !tbaa !13
  %44 = load i32, ptr %5, align 4, !tbaa !13
  %45 = icmp sgt i32 %43, %44
  br i1 %45, label %46, label %89

46:                                               ; preds = %42
  call void @llvm.lifetime.start.p0(i64 8, ptr %8) #8
  %47 = load ptr, ptr %3, align 8, !tbaa !6
  %48 = getelementptr inbounds nuw %struct.x509_store_ctx_st, ptr %47, i32 0, i32 21
  %49 = load ptr, ptr %48, align 8, !tbaa !28
  %50 = load i32, ptr %6, align 4, !tbaa !13
  %51 = sext i32 %50 to i64
  %52 = call ptr @sk_value(ptr noundef %49, i64 noundef %51)
  %53 = getelementptr inbounds nuw %struct.x509_st, ptr %52, i32 0, i32 18
  %54 = load ptr, ptr %53, align 8, !tbaa !72
  store ptr %54, ptr %8, align 8, !tbaa !73
  %55 = load ptr, ptr %8, align 8, !tbaa !73
  %56 = icmp ne ptr %55, null
  br i1 %56, label %57, label %82

57:                                               ; preds = %46
  %58 = load ptr, ptr %4, align 8, !tbaa !11
  %59 = load ptr, ptr %8, align 8, !tbaa !73
  %60 = call i32 @NAME_CONSTRAINTS_check(ptr noundef %58, ptr noundef %59)
  store i32 %60, ptr %7, align 4, !tbaa !13
  %61 = load i32, ptr %7, align 4, !tbaa !13
  %62 = icmp ne i32 %61, 0
  br i1 %62, label %63, label %81

63:                                               ; preds = %57
  %64 = load i32, ptr %7, align 4, !tbaa !13
  %65 = load ptr, ptr %3, align 8, !tbaa !6
  %66 = getelementptr inbounds nuw %struct.x509_store_ctx_st, ptr %65, i32 0, i32 25
  store i32 %64, ptr %66, align 8, !tbaa !41
  %67 = load i32, ptr %5, align 4, !tbaa !13
  %68 = load ptr, ptr %3, align 8, !tbaa !6
  %69 = getelementptr inbounds nuw %struct.x509_store_ctx_st, ptr %68, i32 0, i32 24
  store i32 %67, ptr %69, align 4, !tbaa !43
  %70 = load ptr, ptr %4, align 8, !tbaa !11
  %71 = load ptr, ptr %3, align 8, !tbaa !6
  %72 = getelementptr inbounds nuw %struct.x509_store_ctx_st, ptr %71, i32 0, i32 26
  store ptr %70, ptr %72, align 8, !tbaa !42
  %73 = load ptr, ptr %3, align 8, !tbaa !6
  %74 = getelementptr inbounds nuw %struct.x509_store_ctx_st, ptr %73, i32 0, i32 8
  %75 = load ptr, ptr %74, align 8, !tbaa !29
  %76 = load ptr, ptr %3, align 8, !tbaa !6
  %77 = call i32 %75(i32 noundef 0, ptr noundef %76)
  %78 = icmp ne i32 %77, 0
  br i1 %78, label %80, label %79

79:                                               ; preds = %63
  store i32 0, ptr %2, align 4
  store i32 1, ptr %9, align 4
  br label %83

80:                                               ; preds = %63
  br label %81

81:                                               ; preds = %80, %57
  br label %82

82:                                               ; preds = %81, %46
  store i32 0, ptr %9, align 4
  br label %83

83:                                               ; preds = %82, %79
  call void @llvm.lifetime.end.p0(i64 8, ptr %8) #8
  %84 = load i32, ptr %9, align 4
  switch i32 %84, label %94 [
    i32 0, label %85
  ]

85:                                               ; preds = %83
  br label %86

86:                                               ; preds = %85
  %87 = load i32, ptr %6, align 4, !tbaa !13
  %88 = add nsw i32 %87, -1
  store i32 %88, ptr %6, align 4, !tbaa !13
  br label %42, !llvm.loop !74

89:                                               ; preds = %42
  br label %90

90:                                               ; preds = %89, %34
  %91 = load i32, ptr %5, align 4, !tbaa !13
  %92 = add nsw i32 %91, -1
  store i32 %92, ptr %5, align 4, !tbaa !13
  br label %16, !llvm.loop !75

93:                                               ; preds = %16
  store i32 1, ptr %2, align 4
  store i32 1, ptr %9, align 4
  br label %94

94:                                               ; preds = %93, %83
  call void @llvm.lifetime.end.p0(i64 4, ptr %7) #8
  call void @llvm.lifetime.end.p0(i64 4, ptr %6) #8
  call void @llvm.lifetime.end.p0(i64 4, ptr %5) #8
  call void @llvm.lifetime.end.p0(i64 8, ptr %4) #8
  %95 = load i32, ptr %2, align 4
  ret i32 %95
}