; Function Attrs: nounwind uwtable
define internal fastcc range(i32 0, 2) i32 @check_name_constraints(ptr noundef %0) unnamed_addr #0 {
  %2 = getelementptr inbounds nuw i8, ptr %0, i64 160
  %3 = load ptr, ptr %2, align 8, !tbaa !23
  %4 = tail call i64 @sk_num(ptr noundef %3) #14
  %5 = trunc i64 %4 to i32
  %.02739 = add i32 %5, -1
  %6 = icmp sgt i32 %.02739, -1
  br i1 %6, label %.lr.ph41, label %.loopexit35

.lr.ph41:                                         ; preds = %1
  %7 = getelementptr inbounds nuw i8, ptr %0, i64 184
  %8 = getelementptr inbounds nuw i8, ptr %0, i64 180
  %9 = getelementptr inbounds nuw i8, ptr %0, i64 192
  %10 = getelementptr inbounds nuw i8, ptr %0, i64 64
  %11 = zext nneg i32 %.02739 to i64
  br label %12

12:                                               ; preds = %.lr.ph41, %.loopexit
  %indvars.iv = phi i64 [ %11, %.lr.ph41 ], [ %indvars.iv.next, %.loopexit ]
  %13 = load ptr, ptr %2, align 8, !tbaa !23
  %14 = tail call ptr @sk_value(ptr noundef %13, i64 noundef %indvars.iv) #14
  %.not = icmp eq i64 %indvars.iv, 0
  br i1 %.not, label %19, label %15

15:                                               ; preds = %12
  %16 = getelementptr inbounds nuw i8, ptr %14, i64 64
  %17 = load i64, ptr %16, align 8, !tbaa !33
  %18 = and i64 %17, 32
  %.not31 = icmp eq i64 %18, 0
  br i1 %.not31, label %19, label %.loopexit

19:                                               ; preds = %15, %12
  %20 = load ptr, ptr %2, align 8, !tbaa !23
  %21 = tail call i64 @sk_num(ptr noundef %20) #14
  %22 = trunc i64 %21 to i32
  %.02837 = add i32 %22, -1
  %23 = sext i32 %.02837 to i64
  %24 = icmp slt i64 %indvars.iv, %23
  br i1 %24, label %.lr.ph.preheader, label %.loopexit

.lr.ph.preheader:                                 ; preds = %19
  %25 = trunc nuw nsw i64 %indvars.iv to i32
  br label %.lr.ph

.lr.ph:                                           ; preds = %.lr.ph.preheader, %.critedge
  %.02838 = phi i32 [ %.028, %.critedge ], [ %.02837, %.lr.ph.preheader ]
  %26 = load ptr, ptr %2, align 8, !tbaa !23
  %27 = zext nneg i32 %.02838 to i64
  %28 = tail call ptr @sk_value(ptr noundef %26, i64 noundef %27) #14
  %29 = getelementptr inbounds nuw i8, ptr %28, i64 136
  %30 = load ptr, ptr %29, align 8, !tbaa !68
  %.not32 = icmp eq ptr %30, null
  br i1 %.not32, label %.critedge, label %31

31:                                               ; preds = %.lr.ph
  %32 = tail call i32 @NAME_CONSTRAINTS_check(ptr noundef %14, ptr noundef nonnull %30) #14
  %.not33 = icmp eq i32 %32, 0
  br i1 %.not33, label %.critedge, label %33

33:                                               ; preds = %31
  store i32 %32, ptr %7, align 8, !tbaa !50
  store i32 %25, ptr %8, align 4, !tbaa !52
  store ptr %14, ptr %9, align 8, !tbaa !51
  %34 = load ptr, ptr %10, align 8, !tbaa !24
  %35 = tail call i32 %34(i32 noundef 0, ptr noundef nonnull %0) #14
  %.not34 = icmp eq i32 %35, 0
  br i1 %.not34, label %.loopexit35, label %.critedge

.critedge:                                        ; preds = %31, %33, %.lr.ph
  %.028 = add nsw i32 %.02838, -1
  %36 = sext i32 %.028 to i64
  %37 = icmp slt i64 %indvars.iv, %36
  br i1 %37, label %.lr.ph, label %.loopexit, !llvm.loop !69

.loopexit:                                        ; preds = %.critedge, %19, %15
  %indvars.iv.next = add nsw i64 %indvars.iv, -1
  %38 = icmp sgt i64 %indvars.iv, 0
  br i1 %38, label %12, label %.loopexit35, !llvm.loop !70

.loopexit35:                                      ; preds = %.loopexit, %33, %1
  %.4 = phi i32 [ 1, %1 ], [ 0, %33 ], [ 1, %.loopexit ]
  ret i32 %.4
}